; Function Attrs: mustprogress uwtable
define void @_ZN3zmq11io_object_tC2EPNS_11io_thread_tE(ptr noundef nonnull writeonly align 8 captures(none) dereferenceable(16) initializes((0, 16)) %0, ptr noundef %1) unnamed_addr #0 align 2 personality ptr @__gxx_personality_v0 {
  store ptr getelementptr inbounds nuw inrange(-16, 40) (i8, ptr @_ZTVN3zmq11io_object_tE, i64 16), ptr %0, align 8, !tbaa !3
  %3 = getelementptr inbounds nuw i8, ptr %0, i64 8
  store ptr null, ptr %3, align 8, !tbaa !6
  %.not = icmp eq ptr %1, null
  br i1 %.not, label %5, label %.noexc4

.noexc4:                                          ; preds = %2
  %4 = tail call noundef ptr @_ZNK3zmq11io_thread_t10get_pollerEv(ptr noundef nonnull align 8 dereferenceable(224) %1)
  store ptr %4, ptr %3, align 8, !tbaa !6
  br label %5

5:                                                ; preds = %.noexc4, %2
  ret void
}